target datalayout = "e-m:e-p270:32:32-p271:32:32-p272:64:64-i64:64-i128:128-f80:128-n8:16:32:64-S128"
target triple = "x86_64-pc-linux-gnu"

%"class.std::__cxx11::basic_string" = type { %"struct.std::__cxx11::basic_string<char>::_Alloc_hider", i64, %union.anon }
%"struct.std::__cxx11::basic_string<char>::_Alloc_hider" = type { ptr }
%union.anon = type { i64, [8 x i8] }
%"struct.DeformationModel::GridPrototype" = type { double, double, double, double, i32, i32 }
%"struct.(anonymous namespace)::Grid" = type { %"struct.DeformationModel::GridPrototype", ptr, ptr, i8, i8, i32, i32, i32 }
%"struct.osgeo::proj::ExtentAndRes" = type { i8, double, double, double, double, double, double, double, double }
%"class.osgeo::proj::Grid" = type { ptr, %"class.std::__cxx11::basic_string", i32, i32, %"struct.osgeo::proj::ExtentAndRes" }

@.str.138 = private unnamed_addr constant [31 x i8] c"grid %s has not enough samples\00", align 1
@.str.140 = private unnamed_addr constant [60 x i8] c"grid %s : Found band description, but not the ones expected\00", align 1
@.str.142 = private unnamed_addr constant [12 x i8] c"east_offset\00", align 1
@.str.143 = private unnamed_addr constant [13 x i8] c"north_offset\00", align 1
@.str.144 = private unnamed_addr constant [55 x i8] c"grid %s : Only unit=%s currently handled for this mode\00", align 1

; Function Attrs: noreturn nounwind uwtable
define linkonce_odr hidden void @__clang_call_terminate(ptr noundef %0) #11 comdat {
  %2 = call ptr @__cxa_begin_catch(ptr %0) #5
  call void @_ZSt9terminatev() #20
  unreachable
}

; Function Attrs: mustprogress nounwind uwtable
define linkonce_odr noundef i32 @_ZNSt11char_traitsIcE7compareEPKcS2_m(ptr noundef %0, ptr noundef %1, i64 noundef %2) #0 comdat align 2 {
  %4 = alloca i32, align 4
  %5 = alloca ptr, align 8
  %6 = alloca ptr, align 8
  %7 = alloca i64, align 8
  store ptr %0, ptr %5, align 8
  store ptr %1, ptr %6, align 8
  store i64 %2, ptr %7, align 8
  %8 = load i64, ptr %7, align 8
  %9 = icmp eq i64 %8, 0
  br i1 %9, label %10, label %11

10:                                               ; preds = %3
  store i32 0, ptr %4, align 4
  br label %16

11:                                               ; preds = %3
  %12 = load ptr, ptr %5, align 8
  %13 = load ptr, ptr %6, align 8
  %14 = load i64, ptr %7, align 8
  %15 = call i32 @memcmp(ptr noundef %12, ptr noundef %13, i64 noundef %14) #5
  store i32 %15, ptr %4, align 4
  br label %16

16:                                               ; preds = %11, %10
  %17 = load i32, ptr %4, align 4
  ret i32 %17
}

; Function Attrs: mustprogress nounwind uwtable
define linkonce_odr noundef zeroext i1 @_ZSteqIcEN9__gnu_cxx11__enable_ifIXsr9__is_charIT_EE7__valueEbE6__typeERKNSt7__cxx1112basic_stringIS2_St11char_traitsIS2_ESaIS2_EEESC_(ptr noundef nonnull align 8 dereferenceable(32) %0, ptr noundef nonnull align 8 dereferenceable(32) %1) #0 comdat personality ptr @__gxx_personality_v0 {
  %3 = alloca ptr, align 8
  %4 = alloca ptr, align 8
  store ptr %0, ptr %3, align 8
  store ptr %1, ptr %4, align 8
  %5 = load ptr, ptr %3, align 8
  %6 = call noundef i64 @_ZNKSt7__cxx1112basic_stringIcSt11char_traitsIcESaIcEE4sizeEv(ptr noundef nonnull align 8 dereferenceable(32) %5) #5
  %7 = load ptr, ptr %4, align 8
  %8 = call noundef i64 @_ZNKSt7__cxx1112basic_stringIcSt11char_traitsIcESaIcEE4sizeEv(ptr noundef nonnull align 8 dereferenceable(32) %7) #5
  %9 = icmp eq i64 %6, %8
  br i1 %9, label %10, label %21

10:                                               ; preds = %2
  %11 = load ptr, ptr %3, align 8
  %12 = call noundef ptr @_ZNKSt7__cxx1112basic_stringIcSt11char_traitsIcESaIcEE4dataEv(ptr noundef nonnull align 8 dereferenceable(32) %11) #5
  %13 = load ptr, ptr %4, align 8
  %14 = call noundef ptr @_ZNKSt7__cxx1112basic_stringIcSt11char_traitsIcESaIcEE4dataEv(ptr noundef nonnull align 8 dereferenceable(32) %13) #5
  %15 = load ptr, ptr %3, align 8
  %16 = call noundef i64 @_ZNKSt7__cxx1112basic_stringIcSt11char_traitsIcESaIcEE4sizeEv(ptr noundef nonnull align 8 dereferenceable(32) %15) #5
  %17 = invoke noundef i32 @_ZNSt11char_traitsIcE7compareEPKcS2_m(ptr noundef %12, ptr noundef %14, i64 noundef %16)
          to label %18 unwind label %23

18:                                               ; preds = %10
  %19 = icmp ne i32 %17, 0
  %20 = xor i1 %19, true
  br label %21

21:                                               ; preds = %18, %2
  %22 = phi i1 [ false, %2 ], [ %20, %18 ]
  ret i1 %22

23:                                               ; preds = %10
  %24 = landingpad { ptr, i32 }
          catch ptr null
  %25 = extractvalue { ptr, i32 } %24, 0
  call void @__clang_call_terminate(ptr %25) #20
  unreachable
}

; Function Attrs: mustprogress nounwind uwtable
define linkonce_odr noundef zeroext i1 @_ZStneIcSt11char_traitsIcESaIcEEbRKNSt7__cxx1112basic_stringIT_T0_T1_EESA_(ptr noundef nonnull align 8 dereferenceable(32) %0, ptr noundef nonnull align 8 dereferenceable(32) %1) #0 comdat {
  %3 = alloca ptr, align 8
  %4 = alloca ptr, align 8
  store ptr %0, ptr %3, align 8
  store ptr %1, ptr %4, align 8
  %5 = load ptr, ptr %3, align 8
  %6 = load ptr, ptr %4, align 8
  %7 = call noundef zeroext i1 @_ZSteqIcEN9__gnu_cxx11__enable_ifIXsr9__is_charIT_EE7__valueEbE6__typeERKNSt7__cxx1112basic_stringIS2_St11char_traitsIS2_ESaIS2_EEESC_(ptr noundef nonnull align 8 dereferenceable(32) %5, ptr noundef nonnull align 8 dereferenceable(32) %6) #5
  %8 = xor i1 %7, true
  ret i1 %8
}

; Function Attrs: mustprogress nounwind uwtable
define linkonce_odr noundef zeroext i1 @_ZSteqIcSt11char_traitsIcESaIcEEbRKNSt7__cxx1112basic_stringIT_T0_T1_EEPKS5_(ptr noundef nonnull align 8 dereferenceable(32) %0, ptr noundef %1) #0 comdat {
  %3 = alloca ptr, align 8
  %4 = alloca ptr, align 8
  store ptr %0, ptr %3, align 8
  store ptr %1, ptr %4, align 8
  %5 = load ptr, ptr %3, align 8
  %6 = load ptr, ptr %4, align 8
  %7 = call noundef i32 @_ZNKSt7__cxx1112basic_stringIcSt11char_traitsIcESaIcEE7compareEPKc(ptr noundef nonnull align 8 dereferenceable(32) %5, ptr noundef %6) #5
  %8 = icmp eq i32 %7, 0
  ret i1 %8
}

; Function Attrs: mustprogress nounwind uwtable
define linkonce_odr noundef nonnull align 8 dereferenceable(32) ptr @_ZNK5osgeo4proj4Grid4nameB5cxx11Ev(ptr noundef nonnull align 8 dereferenceable(120) %0) #0 comdat align 2 {
  %2 = alloca ptr, align 8
  store ptr %0, ptr %2, align 8
  %3 = load ptr, ptr %2, align 8
  %4 = getelementptr inbounds %"class.osgeo::proj::Grid", ptr %3, i32 0, i32 1
  ret ptr %4
}

; Function Attrs: mustprogress uwtable
define internal noundef zeroext i1 @_ZNK12_GLOBAL__N_14Grid15checkHorizontalERKNSt7__cxx1112basic_stringIcSt11char_traitsIcESaIcEEE(ptr noundef nonnull align 8 dereferenceable(72) %0, ptr noundef nonnull align 8 dereferenceable(32) %1) #6 align 2 personality ptr @__gxx_personality_v0 {
  %3 = alloca i1, align 1
  %4 = alloca ptr, align 8
  %5 = alloca ptr, align 8
  %6 = alloca i32, align 4
  %7 = alloca i8, align 1
  %8 = alloca i8, align 1
  %9 = alloca i8, align 1
  %10 = alloca i32, align 4
  %11 = alloca %"class.std::__cxx11::basic_string", align 8
  %12 = alloca ptr, align 8
  %13 = alloca i32, align 4
  %14 = alloca %"class.std::__cxx11::basic_string", align 8
  %15 = alloca i32, align 4
  store ptr %0, ptr %4, align 8
  store ptr %1, ptr %5, align 8
  %16 = load ptr, ptr %4, align 8
  %17 = getelementptr inbounds %"struct.(anonymous namespace)::Grid", ptr %16, i32 0, i32 3
  %18 = load i8, ptr %17, align 8
  %19 = trunc i8 %18 to i1
  br i1 %19, label %118, label %20

20:                                               ; preds = %2
  %21 = getelementptr inbounds %"struct.(anonymous namespace)::Grid", ptr %16, i32 0, i32 2
  %22 = load ptr, ptr %21, align 8
  %23 = load ptr, ptr %22, align 8
  %24 = getelementptr inbounds ptr, ptr %23, i64 8
  %25 = load ptr, ptr %24, align 8
  %26 = call noundef i32 %25(ptr noundef nonnull align 8 dereferenceable(144) %22)
  store i32 %26, ptr %6, align 4
  %27 = load i32, ptr %6, align 4
  %28 = icmp slt i32 %27, 2
  br i1 %28, label %29, label %36

29:                                               ; preds = %20
  %30 = getelementptr inbounds %"struct.(anonymous namespace)::Grid", ptr %16, i32 0, i32 1
  %31 = load ptr, ptr %30, align 8
  %32 = getelementptr inbounds %"struct.(anonymous namespace)::Grid", ptr %16, i32 0, i32 2
  %33 = load ptr, ptr %32, align 8
  %34 = call noundef nonnull align 8 dereferenceable(32) ptr @_ZNK5osgeo4proj4Grid4nameB5cxx11Ev(ptr noundef nonnull align 8 dereferenceable(120) %33)
  %35 = call noundef ptr @_ZNKSt7__cxx1112basic_stringIcSt11char_traitsIcESaIcEE5c_strEv(ptr noundef nonnull align 8 dereferenceable(32) %34) #5
  call void (ptr, i32, ptr, ...) @_Z6pj_logP6pj_ctxiPKcz(ptr noundef %31, i32 noundef 1, ptr noundef @.str.138, ptr noundef %35)
  store i1 false, ptr %3, align 1
  br label %119

36:                                               ; preds = %20
  store i8 0, ptr %7, align 1
  store i8 0, ptr %8, align 1
  store i8 0, ptr %9, align 1
  store i32 0, ptr %10, align 4
  br label %37

37:                                               ; preds = %68, %36
  %38 = load i32, ptr %10, align 4
  %39 = load i32, ptr %6, align 4
  %40 = icmp slt i32 %38, %39
  br i1 %40, label %41, label %71

41:                                               ; preds = %37
  %42 = getelementptr inbounds %"struct.(anonymous namespace)::Grid", ptr %16, i32 0, i32 2
  %43 = load ptr, ptr %42, align 8
  %44 = load i32, ptr %10, align 4
  %45 = load ptr, ptr %43, align 8
  %46 = getelementptr inbounds ptr, ptr %45, i64 7
  %47 = load ptr, ptr %46, align 8
  call void %47(ptr dead_on_unwind writable sret(%"class.std::__cxx11::basic_string") align 8 %11, ptr noundef nonnull align 8 dereferenceable(144) %43, i32 noundef %44)
  %48 = invoke noundef zeroext i1 @_ZSteqIcSt11char_traitsIcESaIcEEbRKNSt7__cxx1112basic_stringIT_T0_T1_EEPKS5_(ptr noundef nonnull align 8 dereferenceable(32) %11, ptr noundef @.str.142)
          to label %49 unwind label %53

49:                                               ; preds = %41
  br i1 %48, label %50, label %57

50:                                               ; preds = %49
  %51 = load i32, ptr %10, align 4
  %52 = getelementptr inbounds %"struct.(anonymous namespace)::Grid", ptr %16, i32 0, i32 5
  store i32 %51, ptr %52, align 4
  store i8 1, ptr %7, align 1
  br label %64

53:                                               ; preds = %57, %41
  %54 = landingpad { ptr, i32 }
          cleanup
  %55 = extractvalue { ptr, i32 } %54, 0
  store ptr %55, ptr %12, align 8
  %56 = extractvalue { ptr, i32 } %54, 1
  store i32 %56, ptr %13, align 4
  call void @_ZNSt7__cxx1112basic_stringIcSt11char_traitsIcESaIcEED1Ev(ptr noundef nonnull align 8 dereferenceable(32) %11) #5
  br label %121

57:                                               ; preds = %49
  %58 = invoke noundef zeroext i1 @_ZSteqIcSt11char_traitsIcESaIcEEbRKNSt7__cxx1112basic_stringIT_T0_T1_EEPKS5_(ptr noundef nonnull align 8 dereferenceable(32) %11, ptr noundef @.str.143)
          to label %59 unwind label %53

59:                                               ; preds = %57
  br i1 %58, label %60, label %63

60:                                               ; preds = %59
  %61 = load i32, ptr %10, align 4
  %62 = getelementptr inbounds %"struct.(anonymous namespace)::Grid", ptr %16, i32 0, i32 6
  store i32 %61, ptr %62, align 8
  store i8 1, ptr %8, align 1
  br label %63

63:                                               ; preds = %60, %59
  br label %64

64:                                               ; preds = %63, %50
  %65 = call noundef zeroext i1 @_ZNKSt7__cxx1112basic_stringIcSt11char_traitsIcESaIcEE5emptyEv(ptr noundef nonnull align 8 dereferenceable(32) %11) #5
  br i1 %65, label %67, label %66

66:                                               ; preds = %64
  store i8 1, ptr %9, align 1
  br label %67

67:                                               ; preds = %66, %64
  call void @_ZNSt7__cxx1112basic_stringIcSt11char_traitsIcESaIcEED1Ev(ptr noundef nonnull align 8 dereferenceable(32) %11) #5
  br label %68

68:                                               ; preds = %67
  %69 = load i32, ptr %10, align 4
  %70 = add nsw i32 %69, 1
  store i32 %70, ptr %10, align 4
  br label %37, !llvm.loop !20

71:                                               ; preds = %37
  %72 = load i8, ptr %9, align 1
  %73 = trunc i8 %72 to i1
  br i1 %73, label %74, label %87

74:                                               ; preds = %71
  %75 = load i8, ptr %7, align 1
  %76 = trunc i8 %75 to i1
  br i1 %76, label %77, label %80

77:                                               ; preds = %74
  %78 = load i8, ptr %8, align 1
  %79 = trunc i8 %78 to i1
  br i1 %79, label %87, label %80

80:                                               ; preds = %77, %74
  %81 = getelementptr inbounds %"struct.(anonymous namespace)::Grid", ptr %16, i32 0, i32 1
  %82 = load ptr, ptr %81, align 8
  %83 = getelementptr inbounds %"struct.(anonymous namespace)::Grid", ptr %16, i32 0, i32 2
  %84 = load ptr, ptr %83, align 8
  %85 = call noundef nonnull align 8 dereferenceable(32) ptr @_ZNK5osgeo4proj4Grid4nameB5cxx11Ev(ptr noundef nonnull align 8 dereferenceable(120) %84)
  %86 = call noundef ptr @_ZNKSt7__cxx1112basic_stringIcSt11char_traitsIcESaIcEE5c_strEv(ptr noundef nonnull align 8 dereferenceable(32) %85) #5
  call void (ptr, i32, ptr, ...) @_Z6pj_logP6pj_ctxiPKcz(ptr noundef %82, i32 noundef 1, ptr noundef @.str.140, ptr noundef %86)
  store i1 false, ptr %3, align 1
  br label %119

87:                                               ; preds = %77, %71
  %88 = getelementptr inbounds %"struct.(anonymous namespace)::Grid", ptr %16, i32 0, i32 2
  %89 = load ptr, ptr %88, align 8
  %90 = getelementptr inbounds %"struct.(anonymous namespace)::Grid", ptr %16, i32 0, i32 5
  %91 = load i32, ptr %90, align 4
  %92 = load ptr, ptr %89, align 8
  %93 = getelementptr inbounds ptr, ptr %92, i64 6
  %94 = load ptr, ptr %93, align 8
  call void %94(ptr dead_on_unwind writable sret(%"class.std::__cxx11::basic_string") align 8 %14, ptr noundef nonnull align 8 dereferenceable(144) %89, i32 noundef %91)
  %95 = call noundef zeroext i1 @_ZNKSt7__cxx1112basic_stringIcSt11char_traitsIcESaIcEE5emptyEv(ptr noundef nonnull align 8 dereferenceable(32) %14) #5
  br i1 %95, label %113, label %96

96:                                               ; preds = %87
  %97 = load ptr, ptr %5, align 8
  %98 = call noundef zeroext i1 @_ZStneIcSt11char_traitsIcESaIcEEbRKNSt7__cxx1112basic_stringIT_T0_T1_EESA_(ptr noundef nonnull align 8 dereferenceable(32) %14, ptr noundef nonnull align 8 dereferenceable(32) %97) #5
  br i1 %98, label %99, label %113

99:                                               ; preds = %96
  %100 = getelementptr inbounds %"struct.(anonymous namespace)::Grid", ptr %16, i32 0, i32 1
  %101 = load ptr, ptr %100, align 8
  %102 = getelementptr inbounds %"struct.(anonymous namespace)::Grid", ptr %16, i32 0, i32 2
  %103 = load ptr, ptr %102, align 8
  %104 = call noundef nonnull align 8 dereferenceable(32) ptr @_ZNK5osgeo4proj4Grid4nameB5cxx11Ev(ptr noundef nonnull align 8 dereferenceable(120) %103)
  %105 = call noundef ptr @_ZNKSt7__cxx1112basic_stringIcSt11char_traitsIcESaIcEE5c_strEv(ptr noundef nonnull align 8 dereferenceable(32) %104) #5
  %106 = load ptr, ptr %5, align 8
  %107 = call noundef ptr @_ZNKSt7__cxx1112basic_stringIcSt11char_traitsIcESaIcEE5c_strEv(ptr noundef nonnull align 8 dereferenceable(32) %106) #5
  invoke void (ptr, i32, ptr, ...) @_Z6pj_logP6pj_ctxiPKcz(ptr noundef %101, i32 noundef 1, ptr noundef @.str.144, ptr noundef %105, ptr noundef %107)
          to label %108 unwind label %109

108:                                              ; preds = %99
  store i1 false, ptr %3, align 1
  store i32 1, ptr %15, align 4
  br label %115

109:                                              ; preds = %99
  %110 = landingpad { ptr, i32 }
          cleanup
  %111 = extractvalue { ptr, i32 } %110, 0
  store ptr %111, ptr %12, align 8
  %112 = extractvalue { ptr, i32 } %110, 1
  store i32 %112, ptr %13, align 4
  call void @_ZNSt7__cxx1112basic_stringIcSt11char_traitsIcESaIcEED1Ev(ptr noundef nonnull align 8 dereferenceable(32) %14) #5
  br label %121

113:                                              ; preds = %96, %87
  %114 = getelementptr inbounds %"struct.(anonymous namespace)::Grid", ptr %16, i32 0, i32 3
  store i8 1, ptr %114, align 8
  store i32 0, ptr %15, align 4
  br label %115

115:                                              ; preds = %113, %108
  call void @_ZNSt7__cxx1112basic_stringIcSt11char_traitsIcESaIcEED1Ev(ptr noundef nonnull align 8 dereferenceable(32) %14) #5
  %116 = load i32, ptr %15, align 4
  switch i32 %116, label %126 [
    i32 0, label %117
    i32 1, label %119
  ]

117:                                              ; preds = %115
  br label %118

118:                                              ; preds = %117, %2
  store i1 true, ptr %3, align 1
  br label %119

119:                                              ; preds = %118, %115, %80, %29
  %120 = load i1, ptr %3, align 1
  ret i1 %120

121:                                              ; preds = %109, %53
  %122 = load ptr, ptr %12, align 8
  %123 = load i32, ptr %13, align 4
  %124 = insertvalue { ptr, i32 } poison, ptr %122, 0
  %125 = insertvalue { ptr, i32 } %124, i32 %123, 1
  resume { ptr, i32 } %125

126:                                              ; preds = %115
  unreachable
}