; Function Attrs: mustprogress uwtable
define internal fastcc noundef zeroext i1 @_ZNK12_GLOBAL__N_14Grid15checkHorizontalERKNSt7__cxx1112basic_stringIcSt11char_traitsIcESaIcEEE(ptr nocapture noundef nonnull align 8 dereferenceable(72) %0, ptr noundef nonnull align 8 dereferenceable(32) %1) unnamed_addr #6 align 2 personality ptr @__gxx_personality_v0 {
  %3 = alloca %"class.std::__cxx11::basic_string", align 8
  %4 = alloca %"class.std::__cxx11::basic_string", align 8
  %5 = getelementptr inbounds i8, ptr %0, i64 56
  %6 = load i8, ptr %5, align 8
  %7 = trunc i8 %6 to i1
  br i1 %7, label %72, label %8

8:                                                ; preds = %2
  %9 = getelementptr inbounds i8, ptr %0, i64 48
  %10 = load ptr, ptr %9, align 8
  %11 = load ptr, ptr %10, align 8
  %12 = getelementptr inbounds i8, ptr %11, i64 64
  %13 = load ptr, ptr %12, align 8
  %14 = tail call noundef i32 %13(ptr noundef nonnull align 8 dereferenceable(144) %10)
  %15 = icmp slt i32 %14, 2
  br i1 %15, label %18, label %.preheader

.preheader:                                       ; preds = %8
  %16 = getelementptr inbounds i8, ptr %0, i64 64
  %17 = getelementptr inbounds i8, ptr %0, i64 60
  br label %24

18:                                               ; preds = %8
  %19 = getelementptr inbounds i8, ptr %0, i64 40
  %20 = load ptr, ptr %19, align 8
  %21 = load ptr, ptr %9, align 8
  %22 = getelementptr inbounds i8, ptr %21, i64 8
  %23 = tail call noundef ptr @_ZNKSt7__cxx1112basic_stringIcSt11char_traitsIcESaIcEE5c_strEv(ptr noundef nonnull align 8 dereferenceable(32) %22) #29
  tail call void (ptr, i32, ptr, ...) @_Z6pj_logP6pj_ctxiPKcz(ptr noundef %20, i32 noundef 1, ptr noundef nonnull @.str.138, ptr noundef %23)
  br label %72

24:                                               ; preds = %.preheader, %36
  %.01731 = phi i1 [ false, %.preheader ], [ %.118, %36 ]
  %.01930 = phi i32 [ 0, %.preheader ], [ %38, %36 ]
  %.02029 = phi i1 [ false, %.preheader ], [ %spec.select, %36 ]
  %.02228 = phi i1 [ false, %.preheader ], [ %.123, %36 ]
  %25 = load ptr, ptr %9, align 8
  %26 = load ptr, ptr %25, align 8
  %27 = getelementptr inbounds i8, ptr %26, i64 56
  %28 = load ptr, ptr %27, align 8
  call void %28(ptr dead_on_unwind nonnull writable sret(%"class.std::__cxx11::basic_string") align 8 %3, ptr noundef nonnull align 8 dereferenceable(144) %25, i32 noundef %.01930)
  %29 = call noundef i32 @_ZNKSt7__cxx1112basic_stringIcSt11char_traitsIcESaIcEE7compareEPKc(ptr noundef nonnull align 8 dereferenceable(32) %3, ptr noundef nonnull @.str.142) #29
  %30 = icmp eq i32 %29, 0
  br i1 %30, label %31, label %32

31:                                               ; preds = %24
  store i32 %.01930, ptr %17, align 4
  br label %36

32:                                               ; preds = %24
  %33 = call noundef i32 @_ZNKSt7__cxx1112basic_stringIcSt11char_traitsIcESaIcEE7compareEPKc(ptr noundef nonnull align 8 dereferenceable(32) %3, ptr noundef nonnull @.str.143) #29
  %34 = icmp eq i32 %33, 0
  br i1 %34, label %35, label %36

35:                                               ; preds = %32
  store i32 %.01930, ptr %16, align 8
  br label %36

36:                                               ; preds = %32, %35, %31
  %.123 = phi i1 [ %.02228, %31 ], [ true, %35 ], [ %.02228, %32 ]
  %.118 = phi i1 [ true, %31 ], [ %.01731, %35 ], [ %.01731, %32 ]
  %37 = call noundef zeroext i1 @_ZNKSt7__cxx1112basic_stringIcSt11char_traitsIcESaIcEE5emptyEv(ptr noundef nonnull align 8 dereferenceable(32) %3) #29
  %not. = xor i1 %37, true
  %spec.select = select i1 %not., i1 true, i1 %.02029
  call void @_ZNSt7__cxx1112basic_stringIcSt11char_traitsIcESaIcEED1Ev(ptr noundef nonnull align 8 dereferenceable(32) %3) #29
  %38 = add nuw nsw i32 %.01930, 1
  %exitcond.not = icmp eq i32 %38, %14
  br i1 %exitcond.not, label %39, label %24, !llvm.loop !108

39:                                               ; preds = %36
  %spec.select.not = xor i1 %spec.select, true
  %40 = select i1 %.118, i1 %.123, i1 false
  %or.cond = select i1 %spec.select.not, i1 true, i1 %40
  br i1 %or.cond, label %47, label %41

41:                                               ; preds = %39
  %42 = getelementptr inbounds i8, ptr %0, i64 40
  %43 = load ptr, ptr %42, align 8
  %44 = load ptr, ptr %9, align 8
  %45 = getelementptr inbounds i8, ptr %44, i64 8
  %46 = call noundef ptr @_ZNKSt7__cxx1112basic_stringIcSt11char_traitsIcESaIcEE5c_strEv(ptr noundef nonnull align 8 dereferenceable(32) %45) #29
  call void (ptr, i32, ptr, ...) @_Z6pj_logP6pj_ctxiPKcz(ptr noundef %43, i32 noundef 1, ptr noundef nonnull @.str.140, ptr noundef %46)
  br label %72

47:                                               ; preds = %39
  %48 = load ptr, ptr %9, align 8
  %49 = load i32, ptr %17, align 4
  %50 = load ptr, ptr %48, align 8
  %51 = getelementptr inbounds i8, ptr %50, i64 48
  %52 = load ptr, ptr %51, align 8
  call void %52(ptr dead_on_unwind nonnull writable sret(%"class.std::__cxx11::basic_string") align 8 %4, ptr noundef nonnull align 8 dereferenceable(144) %48, i32 noundef %49)
  %53 = call noundef zeroext i1 @_ZNKSt7__cxx1112basic_stringIcSt11char_traitsIcESaIcEE5emptyEv(ptr noundef nonnull align 8 dereferenceable(32) %4) #29
  br i1 %53, label %.thread, label %54

54:                                               ; preds = %47
  %55 = call noundef i64 @_ZNKSt7__cxx1112basic_stringIcSt11char_traitsIcESaIcEE4sizeEv(ptr noundef nonnull align 8 dereferenceable(32) %4) #29
  %56 = call noundef i64 @_ZNKSt7__cxx1112basic_stringIcSt11char_traitsIcESaIcEE4sizeEv(ptr noundef nonnull align 8 dereferenceable(32) %1) #29
  %57 = icmp eq i64 %55, %56
  br i1 %57, label %58, label %_ZStneIcSt11char_traitsIcESaIcEEbRKNSt7__cxx1112basic_stringIT_T0_T1_EESA_.exit.thread

58:                                               ; preds = %54
  %59 = call noundef ptr @_ZNKSt7__cxx1112basic_stringIcSt11char_traitsIcESaIcEE4dataEv(ptr noundef nonnull align 8 dereferenceable(32) %4) #29
  %60 = call noundef ptr @_ZNKSt7__cxx1112basic_stringIcSt11char_traitsIcESaIcEE4dataEv(ptr noundef nonnull align 8 dereferenceable(32) %1) #29
  %61 = call noundef i64 @_ZNKSt7__cxx1112basic_stringIcSt11char_traitsIcESaIcEE4sizeEv(ptr noundef nonnull align 8 dereferenceable(32) %4) #29
  %62 = icmp eq i64 %61, 0
  br i1 %62, label %.thread, label %_ZStneIcSt11char_traitsIcESaIcEEbRKNSt7__cxx1112basic_stringIT_T0_T1_EESA_.exit

_ZStneIcSt11char_traitsIcESaIcEEbRKNSt7__cxx1112basic_stringIT_T0_T1_EESA_.exit: ; preds = %58
  %bcmp.i.i = call i32 @bcmp(ptr %59, ptr %60, i64 %61)
  %.not = icmp eq i32 %bcmp.i.i, 0
  br i1 %.not, label %.thread, label %_ZStneIcSt11char_traitsIcESaIcEEbRKNSt7__cxx1112basic_stringIT_T0_T1_EESA_.exit.thread

_ZStneIcSt11char_traitsIcESaIcEEbRKNSt7__cxx1112basic_stringIT_T0_T1_EESA_.exit.thread: ; preds = %54, %_ZStneIcSt11char_traitsIcESaIcEEbRKNSt7__cxx1112basic_stringIT_T0_T1_EESA_.exit
  %63 = getelementptr inbounds i8, ptr %0, i64 40
  %64 = load ptr, ptr %63, align 8
  %65 = load ptr, ptr %9, align 8
  %66 = getelementptr inbounds i8, ptr %65, i64 8
  %67 = call noundef ptr @_ZNKSt7__cxx1112basic_stringIcSt11char_traitsIcESaIcEE5c_strEv(ptr noundef nonnull align 8 dereferenceable(32) %66) #29
  %68 = call noundef ptr @_ZNKSt7__cxx1112basic_stringIcSt11char_traitsIcESaIcEE5c_strEv(ptr noundef nonnull align 8 dereferenceable(32) %1) #29
  invoke void (ptr, i32, ptr, ...) @_Z6pj_logP6pj_ctxiPKcz(ptr noundef %64, i32 noundef 1, ptr noundef nonnull @.str.144, ptr noundef %67, ptr noundef %68)
          to label %71 unwind label %69

69:                                               ; preds = %_ZStneIcSt11char_traitsIcESaIcEEbRKNSt7__cxx1112basic_stringIT_T0_T1_EESA_.exit.thread
  %70 = landingpad { ptr, i32 }
          cleanup
  call void @_ZNSt7__cxx1112basic_stringIcSt11char_traitsIcESaIcEED1Ev(ptr noundef nonnull align 8 dereferenceable(32) %4) #29
  resume { ptr, i32 } %70

.thread:                                          ; preds = %47, %_ZStneIcSt11char_traitsIcESaIcEEbRKNSt7__cxx1112basic_stringIT_T0_T1_EESA_.exit, %58
  store i8 1, ptr %5, align 8
  call void @_ZNSt7__cxx1112basic_stringIcSt11char_traitsIcESaIcEED1Ev(ptr noundef nonnull align 8 dereferenceable(32) %4) #29
  br label %72

71:                                               ; preds = %_ZStneIcSt11char_traitsIcESaIcEEbRKNSt7__cxx1112basic_stringIT_T0_T1_EESA_.exit.thread
  call void @_ZNSt7__cxx1112basic_stringIcSt11char_traitsIcESaIcEED1Ev(ptr noundef nonnull align 8 dereferenceable(32) %4) #29
  br label %72

72:                                               ; preds = %2, %.thread, %71, %41, %18
  %.1 = phi i1 [ false, %18 ], [ false, %71 ], [ false, %41 ], [ true, %.thread ], [ true, %2 ]
  ret i1 %.1
}